target datalayout = "e-m:e-p270:32:32-p271:32:32-p272:64:64-i64:64-i128:128-f80:128-n8:16:32:64-S128"
target triple = "x86_64-pc-linux-gnu"

%struct._GtkWidgetClass = type { %struct._GObjectClass, i32, ptr, ptr, ptr, ptr, ptr, ptr, ptr, ptr, ptr, ptr, ptr, ptr, ptr, ptr, ptr, ptr, ptr, ptr, ptr, ptr, ptr, ptr, ptr, ptr, ptr, ptr, ptr, ptr, ptr, ptr, ptr, ptr, ptr, ptr, ptr, ptr, ptr, ptr, ptr, ptr, ptr, ptr, ptr, ptr, ptr, ptr, ptr, ptr, ptr, ptr, ptr, ptr, ptr, ptr, ptr, ptr, ptr, ptr, ptr, ptr, ptr, ptr, ptr, ptr, ptr, ptr, ptr, ptr, ptr, ptr, ptr, ptr, ptr, ptr, ptr, ptr, ptr, ptr, ptr, ptr, ptr, ptr, ptr, ptr, ptr }
%struct._GObjectClass = type { %struct._GTypeClass, ptr, ptr, ptr, ptr, ptr, ptr, ptr, ptr, ptr, i64, [6 x ptr] }
%struct._GTypeClass = type { i64 }

@.str.2 = private unnamed_addr constant [14 x i8] c"value-changed\00", align 1
@_gradient_slider_parent_class = internal global ptr null, align 8
@GtkDarktableGradientSlider_private_offset = internal global i32 0, align 4
@_signals = internal global [2 x i32] zeroinitializer, align 4
@.str.6 = private unnamed_addr constant [12 x i8] c"value-reset\00", align 1

; Function Attrs: nounwind uwtable
define internal void @_gradient_slider_class_init(ptr noundef %0) #0 {
  %2 = alloca ptr, align 8
  %3 = alloca ptr, align 8
  store ptr %0, ptr %2, align 8, !tbaa !15
  call void @llvm.lifetime.start.p0(i64 8, ptr %3) #11
  %4 = load ptr, ptr %2, align 8, !tbaa !15
  store ptr %4, ptr %3, align 8, !tbaa !103
  %5 = load ptr, ptr %3, align 8, !tbaa !103
  %6 = getelementptr inbounds nuw %struct._GtkWidgetClass, ptr %5, i32 0, i32 22
  store ptr @_gradient_slider_get_preferred_height, ptr %6, align 8, !tbaa !105
  %7 = load ptr, ptr %3, align 8, !tbaa !103
  %8 = getelementptr inbounds nuw %struct._GtkWidgetClass, ptr %7, i32 0, i32 24
  store ptr @_gradient_slider_get_preferred_width, ptr %8, align 8, !tbaa !111
  %9 = load ptr, ptr %3, align 8, !tbaa !103
  %10 = getelementptr inbounds nuw %struct._GtkWidgetClass, ptr %9, i32 0, i32 20
  store ptr @_gradient_slider_draw, ptr %10, align 8, !tbaa !112
  %11 = load ptr, ptr %3, align 8, !tbaa !103
  %12 = getelementptr inbounds nuw %struct._GtkWidgetClass, ptr %11, i32 0, i32 3
  store ptr @_gradient_slider_destroy, ptr %12, align 8, !tbaa !113
  %13 = load ptr, ptr %3, align 8, !tbaa !103
  %14 = getelementptr inbounds nuw %struct._GtkWidgetClass, ptr %13, i32 0, i32 40
  store ptr @_gradient_slider_enter_notify_event, ptr %14, align 8, !tbaa !114
  %15 = load ptr, ptr %3, align 8, !tbaa !103
  %16 = getelementptr inbounds nuw %struct._GtkWidgetClass, ptr %15, i32 0, i32 41
  store ptr @_gradient_slider_leave_notify_event, ptr %16, align 8, !tbaa !115
  %17 = load ptr, ptr %3, align 8, !tbaa !103
  %18 = getelementptr inbounds nuw %struct._GtkWidgetClass, ptr %17, i32 0, i32 32
  store ptr @_gradient_slider_button_press, ptr %18, align 8, !tbaa !116
  %19 = load ptr, ptr %3, align 8, !tbaa !103
  %20 = getelementptr inbounds nuw %struct._GtkWidgetClass, ptr %19, i32 0, i32 33
  store ptr @_gradient_slider_button_release, ptr %20, align 8, !tbaa !117
  %21 = load ptr, ptr %3, align 8, !tbaa !103
  %22 = getelementptr inbounds nuw %struct._GtkWidgetClass, ptr %21, i32 0, i32 35
  store ptr @_gradient_slider_motion_notify, ptr %22, align 8, !tbaa !118
  %23 = load ptr, ptr %3, align 8, !tbaa !103
  %24 = getelementptr inbounds nuw %struct._GtkWidgetClass, ptr %23, i32 0, i32 34
  store ptr @_gradient_slider_scroll_event, ptr %24, align 8, !tbaa !119
  %25 = load ptr, ptr %3, align 8, !tbaa !103
  %26 = getelementptr inbounds nuw %struct._GtkWidgetClass, ptr %25, i32 0, i32 38
  store ptr @_gradient_slider_key_press_event, ptr %26, align 8, !tbaa !120
  %27 = load ptr, ptr %2, align 8, !tbaa !15
  %28 = getelementptr inbounds nuw %struct._GTypeClass, ptr %27, i32 0, i32 0
  %29 = load i64, ptr %28, align 8, !tbaa !121
  %30 = call i32 (ptr, i64, i32, i32, ptr, ptr, ptr, i64, i32, ...) @g_signal_new(ptr noundef @.str.2, i64 noundef %29, i32 noundef 2, i32 noundef 0, ptr noundef null, ptr noundef null, ptr noundef @g_cclosure_marshal_VOID__VOID, i64 noundef 4, i32 noundef 0)
  store i32 %30, ptr @_signals, align 4, !tbaa !13
  %31 = load ptr, ptr %2, align 8, !tbaa !15
  %32 = getelementptr inbounds nuw %struct._GTypeClass, ptr %31, i32 0, i32 0
  %33 = load i64, ptr %32, align 8, !tbaa !121
  %34 = call i32 (ptr, i64, i32, i32, ptr, ptr, ptr, i64, i32, ...) @g_signal_new(ptr noundef @.str.6, i64 noundef %33, i32 noundef 2, i32 noundef 0, ptr noundef null, ptr noundef null, ptr noundef @g_cclosure_marshal_VOID__VOID, i64 noundef 4, i32 noundef 0)
  store i32 %34, ptr getelementptr inbounds ([2 x i32], ptr @_signals, i64 0, i64 1), align 4, !tbaa !13
  call void @llvm.lifetime.end.p0(i64 8, ptr %3) #11
  ret void
}

; Function Attrs: nounwind uwtable
define internal void @_gradient_slider_class_intern_init(ptr noundef %0) #0 {
  %2 = alloca ptr, align 8
  store ptr %0, ptr %2, align 8, !tbaa !15
  %3 = load ptr, ptr %2, align 8, !tbaa !15
  %4 = call ptr @g_type_class_peek_parent(ptr noundef %3)
  store ptr %4, ptr @_gradient_slider_parent_class, align 8, !tbaa !15
  %5 = load i32, ptr @GtkDarktableGradientSlider_private_offset, align 4, !tbaa !13
  %6 = icmp ne i32 %5, 0
  br i1 %6, label %7, label %9

7:                                                ; preds = %1
  %8 = load ptr, ptr %2, align 8, !tbaa !15
  call void @g_type_class_adjust_private_offset(ptr noundef %8, ptr noundef @GtkDarktableGradientSlider_private_offset)
  br label %9

9:                                                ; preds = %7, %1
  %10 = load ptr, ptr %2, align 8, !tbaa !15
  call void @_gradient_slider_class_init(ptr noundef %10)
  ret void
}