; Function Attrs: nounwind uwtable
define internal void @_gradient_slider_class_intern_init(ptr noundef %0) #0 {
  %2 = tail call ptr @g_type_class_peek_parent(ptr noundef %0) #14
  store ptr %2, ptr @_gradient_slider_parent_class, align 8, !tbaa !90
  %3 = load i32, ptr @GtkDarktableGradientSlider_private_offset, align 4, !tbaa !44
  %.not = icmp eq i32 %3, 0
  br i1 %.not, label %5, label %4

4:                                                ; preds = %1
  tail call void @g_type_class_adjust_private_offset(ptr noundef %0, ptr noundef nonnull @GtkDarktableGradientSlider_private_offset) #14
  br label %5

5:                                                ; preds = %4, %1
  %6 = getelementptr inbounds nuw i8, ptr %0, i64 304
  store ptr @_gradient_slider_get_preferred_height, ptr %6, align 8, !tbaa !91
  %7 = getelementptr inbounds nuw i8, ptr %0, i64 320
  store ptr @_gradient_slider_get_preferred_width, ptr %7, align 8, !tbaa !97
  %8 = getelementptr inbounds nuw i8, ptr %0, i64 288
  store ptr @_gradient_slider_draw, ptr %8, align 8, !tbaa !98
  %9 = getelementptr inbounds nuw i8, ptr %0, i64 152
  store ptr @_gradient_slider_destroy, ptr %9, align 8, !tbaa !99
  %10 = getelementptr inbounds nuw i8, ptr %0, i64 448
  store ptr @_gradient_slider_enter_notify_event, ptr %10, align 8, !tbaa !100
  %11 = getelementptr inbounds nuw i8, ptr %0, i64 456
  store ptr @_gradient_slider_leave_notify_event, ptr %11, align 8, !tbaa !101
  %12 = getelementptr inbounds nuw i8, ptr %0, i64 384
  store ptr @_gradient_slider_button_press, ptr %12, align 8, !tbaa !102
  %13 = getelementptr inbounds nuw i8, ptr %0, i64 392
  store ptr @_gradient_slider_button_release, ptr %13, align 8, !tbaa !103
  %14 = getelementptr inbounds nuw i8, ptr %0, i64 408
  store ptr @_gradient_slider_motion_notify, ptr %14, align 8, !tbaa !104
  %15 = getelementptr inbounds nuw i8, ptr %0, i64 400
  store ptr @_gradient_slider_scroll_event, ptr %15, align 8, !tbaa !105
  %16 = getelementptr inbounds nuw i8, ptr %0, i64 432
  store ptr @_gradient_slider_key_press_event, ptr %16, align 8, !tbaa !106
  %17 = load i64, ptr %0, align 8, !tbaa !107
  %18 = tail call i32 (ptr, i64, i32, i32, ptr, ptr, ptr, i64, i32, ...) @g_signal_new(ptr noundef nonnull @.str.2, i64 noundef %17, i32 noundef 2, i32 noundef 0, ptr noundef null, ptr noundef null, ptr noundef nonnull @g_cclosure_marshal_VOID__VOID, i64 noundef 4, i32 noundef 0) #14
  %19 = load i64, ptr %0, align 8, !tbaa !107
  %20 = tail call i32 (ptr, i64, i32, i32, ptr, ptr, ptr, i64, i32, ...) @g_signal_new(ptr noundef nonnull @.str.6, i64 noundef %19, i32 noundef 2, i32 noundef 0, ptr noundef null, ptr noundef null, ptr noundef nonnull @g_cclosure_marshal_VOID__VOID, i64 noundef 4, i32 noundef 0) #14
  ret void
}